target datalayout = "e-m:e-p270:32:32-p271:32:32-p272:64:64-i64:64-i128:128-f80:128-n8:16:32:64-S128"
target triple = "x86_64-pc-linux-gnu"

; Function Attrs: mustprogress nounwind uwtable
define linkonce_odr hidden noundef i32 @_ZN4llvm13hexDigitValueEc(i8 noundef signext %0) #0 comdat {
  %2 = alloca i8, align 1
  store i8 %0, ptr %2, align 1
  %3 = load i8, ptr %2, align 1
  %4 = zext i8 %3 to i64
  %5 = getelementptr inbounds [256 x i16], ptr @_ZZN4llvm13hexDigitValueEcE3LUT, i64 0, i64 %4
  %6 = load i16, ptr %5, align 2
  %7 = sext i16 %6 to i32
  ret i32 %7
}

; Function Attrs: mustprogress nounwind uwtable
define linkonce_odr hidden noundef zeroext i1 @_ZN4llvm10isHexDigitEc(i8 noundef signext %0) #0 comdat {
  %2 = alloca i8, align 1
  store i8 %0, ptr %2, align 1
  %3 = load i8, ptr %2, align 1
  %4 = call noundef i32 @_ZN4llvm13hexDigitValueEc(i8 noundef signext %3)
  %5 = icmp ne i32 %4, -1
  ret i1 %5
}

; Function Attrs: mustprogress nounwind uwtable
define linkonce_odr hidden noundef zeroext i1 @_ZN4llvm7isDigitEc(i8 noundef signext %0) #0 comdat {
  %2 = alloca i8, align 1
  store i8 %0, ptr %2, align 1
  %3 = load i8, ptr %2, align 1
  %4 = sext i8 %3 to i32
  %5 = icmp sge i32 %4, 48
  br i1 %5, label %6, label %10

6:                                                ; preds = %1
  %7 = load i8, ptr %2, align 1
  %8 = sext i8 %7 to i32
  %9 = icmp sle i32 %8, 57
  br label %10

10:                                               ; preds = %6, %1
  %11 = phi i1 [ false, %1 ], [ %9, %6 ]
  ret i1 %11
}

; Function Attrs: mustprogress nounwind uwtable
define internal noundef i32 @_ZL14doHexLookAheadRPKcjb(ptr noundef nonnull align 8 dereferenceable(8) %0, i32 noundef %1, i1 noundef zeroext %2) #0 {
  %4 = alloca i32, align 4
  %5 = alloca ptr, align 8
  %6 = alloca i32, align 4
  %7 = alloca i8, align 1
  %8 = alloca ptr, align 8
  %9 = alloca ptr, align 8
  %10 = alloca i8, align 1
  store ptr %0, ptr %5, align 8
  store i32 %1, ptr %6, align 4
  %11 = zext i1 %2 to i8
  store i8 %11, ptr %7, align 1
  store ptr null, ptr %8, align 8
  %12 = load ptr, ptr %5, align 8
  %13 = load ptr, ptr %12, align 8
  store ptr %13, ptr %9, align 8
  br label %14

14:                                               ; preds = %38, %3
  %15 = load ptr, ptr %9, align 8
  %16 = load i8, ptr %15, align 1
  %17 = call noundef zeroext i1 @_ZN4llvm7isDigitEc(i8 noundef signext %16)
  br i1 %17, label %18, label %21

18:                                               ; preds = %14
  %19 = load ptr, ptr %9, align 8
  %20 = getelementptr inbounds i8, ptr %19, i32 1
  store ptr %20, ptr %9, align 8
  br label %38

21:                                               ; preds = %14
  %22 = load ptr, ptr %8, align 8
  %23 = icmp ne ptr %22, null
  br i1 %23, label %26, label %24

24:                                               ; preds = %21
  %25 = load ptr, ptr %9, align 8
  store ptr %25, ptr %8, align 8
  br label %26

26:                                               ; preds = %24, %21
  %27 = load i8, ptr %7, align 1
  %28 = trunc i8 %27 to i1
  br i1 %28, label %29, label %36

29:                                               ; preds = %26
  %30 = load ptr, ptr %9, align 8
  %31 = load i8, ptr %30, align 1
  %32 = call noundef zeroext i1 @_ZN4llvm10isHexDigitEc(i8 noundef signext %31)
  br i1 %32, label %33, label %36

33:                                               ; preds = %29
  %34 = load ptr, ptr %9, align 8
  %35 = getelementptr inbounds i8, ptr %34, i32 1
  store ptr %35, ptr %9, align 8
  br label %37

36:                                               ; preds = %29, %26
  br label %39

37:                                               ; preds = %33
  br label %38

38:                                               ; preds = %37, %18
  br label %14, !llvm.loop !19

39:                                               ; preds = %36
  %40 = load i8, ptr %7, align 1
  %41 = trunc i8 %40 to i1
  br i1 %41, label %42, label %54

42:                                               ; preds = %39
  %43 = load ptr, ptr %9, align 8
  %44 = load i8, ptr %43, align 1
  %45 = sext i8 %44 to i32
  %46 = icmp eq i32 %45, 104
  br i1 %46, label %52, label %47

47:                                               ; preds = %42
  %48 = load ptr, ptr %9, align 8
  %49 = load i8, ptr %48, align 1
  %50 = sext i8 %49 to i32
  %51 = icmp eq i32 %50, 72
  br label %52

52:                                               ; preds = %47, %42
  %53 = phi i1 [ true, %42 ], [ %51, %47 ]
  br label %54

54:                                               ; preds = %52, %39
  %55 = phi i1 [ false, %39 ], [ %53, %52 ]
  %56 = zext i1 %55 to i8
  store i8 %56, ptr %10, align 1
  %57 = load i8, ptr %10, align 1
  %58 = trunc i8 %57 to i1
  br i1 %58, label %62, label %59

59:                                               ; preds = %54
  %60 = load ptr, ptr %8, align 8
  %61 = icmp ne ptr %60, null
  br i1 %61, label %64, label %62

62:                                               ; preds = %59, %54
  %63 = load ptr, ptr %9, align 8
  br label %66

64:                                               ; preds = %59
  %65 = load ptr, ptr %8, align 8
  br label %66

66:                                               ; preds = %64, %62
  %67 = phi ptr [ %63, %62 ], [ %65, %64 ]
  %68 = load ptr, ptr %5, align 8
  store ptr %67, ptr %68, align 8
  %69 = load i8, ptr %10, align 1
  %70 = trunc i8 %69 to i1
  br i1 %70, label %71, label %72

71:                                               ; preds = %66
  store i32 16, ptr %4, align 4
  br label %74

72:                                               ; preds = %66
  %73 = load i32, ptr %6, align 4
  store i32 %73, ptr %4, align 4
  br label %74

74:                                               ; preds = %72, %71
  %75 = load i32, ptr %4, align 4
  ret i32 %75
}