; Function Attrs: mustprogress nofree norecurse nosync nounwind memory(read, argmem: readwrite, inaccessiblemem: none) uwtable
define internal fastcc noundef range(i32 8, 17) i32 @_ZL14doHexLookAheadRPKcjb(ptr nocapture noundef nonnull align 8 dereferenceable(8) %0, i32 noundef %1, i1 noundef zeroext %2) unnamed_addr #8 {
  %4 = load ptr, ptr %0, align 8
  br i1 %2, label %.split.us, label %.split

.split.us:                                        ; preds = %3, %12
  %.020.us = phi ptr [ %.121.us, %12 ], [ null, %3 ]
  %.019.us = phi ptr [ %.1.us, %12 ], [ %4, %3 ]
  %5 = load i8, ptr %.019.us, align 1
  %.fr29.us = freeze i8 %5
  %6 = add i8 %.fr29.us, -48
  %7 = icmp ult i8 %6, 10
  br i1 %7, label %12, label %8

8:                                                ; preds = %.split.us
  %.not23.us = icmp eq ptr %.020.us, null
  %spec.select.us = select i1 %.not23.us, ptr %.019.us, ptr %.020.us
  %9 = zext i8 %.fr29.us to i64
  %10 = getelementptr inbounds [256 x i16], ptr @_ZZN4llvm13hexDigitValueEcE3LUT, i64 0, i64 %9
  %11 = load i16, ptr %10, align 2
  %.not.us = icmp eq i16 %11, -1
  br i1 %.not.us, label %.critedge, label %12

12:                                               ; preds = %8, %.split.us
  %.121.us = phi ptr [ %.020.us, %.split.us ], [ %spec.select.us, %8 ]
  %.1.us = getelementptr inbounds i8, ptr %.019.us, i64 1
  br label %.split.us, !llvm.loop !71

.split:                                           ; preds = %3, %.split
  %.019 = phi ptr [ %.1, %.split ], [ %4, %3 ]
  %13 = load i8, ptr %.019, align 1
  %.fr29 = freeze i8 %13
  %14 = add i8 %.fr29, -48
  %15 = icmp ult i8 %14, 10
  %.1 = getelementptr inbounds i8, ptr %.019, i64 1
  br i1 %15, label %.split, label %.thread, !llvm.loop !71

.critedge:                                        ; preds = %8
  %16 = and i8 %.fr29.us, -33
  %spec.select24 = icmp eq i8 %16, 72
  %.019.us.lcssa.spec.select.us.lcssa = select i1 %spec.select24, ptr %.019.us, ptr %spec.select.us
  %. = select i1 %spec.select24, i32 16, i32 %1
  br label %.thread

.thread:                                          ; preds = %.split, %.critedge
  %spec.select.us.lcssa.sink = phi ptr [ %.019.us.lcssa.spec.select.us.lcssa, %.critedge ], [ %.019, %.split ]
  %17 = phi i32 [ %., %.critedge ], [ %1, %.split ]
  store ptr %spec.select.us.lcssa.sink, ptr %0, align 8
  ret i32 %17
}